; Function Attrs: mustprogress uwtable
define noundef i64 @_ZNK6google8protobuf5Mixin12ByteSizeLongEv(ptr noundef nonnull align 8 dereferenceable(40) %this) unnamed_addr #3 align 2 personality ptr @__gxx_personality_v0 {
entry:
  %0 = getelementptr inbounds i8, ptr %this, i64 16
  %1 = load ptr, ptr %0, align 8
  %2 = ptrtoint ptr %1 to i64
  %and.i.i = and i64 %2, -4
  %3 = inttoptr i64 %and.i.i to ptr
  %call2 = tail call noundef zeroext i1 @_ZNKSt7__cxx1112basic_stringIcSt11char_traitsIcESaIcEE5emptyEv(ptr noundef nonnull align 8 dereferenceable(32) %3) #16
  br i1 %call2, label %if.end, label %if.then

if.then:                                          ; preds = %entry
  %4 = load ptr, ptr %0, align 8
  %5 = ptrtoint ptr %4 to i64
  %and.i.i3 = and i64 %5, -4
  %6 = inttoptr i64 %and.i.i3 to ptr
  %call.i = tail call noundef i64 @_ZNKSt7__cxx1112basic_stringIcSt11char_traitsIcESaIcEE4sizeEv(ptr noundef nonnull align 8 dereferenceable(32) %6) #16
  %conv.i.i = trunc i64 %call.i to i32
  %or.i.i.i = or i32 %conv.i.i, 1
  %7 = tail call noundef i32 @llvm.ctlz.i32(i32 %or.i.i.i, i1 true), !range !10
  %sub.i.i.i = xor i32 %7, 31
  %mul.i.i.i = mul nuw nsw i32 %sub.i.i.i, 9
  %add.i.i.i = add nuw nsw i32 %mul.i.i.i, 73
  %div1.i.i.i = lshr i32 %add.i.i.i, 6
  %conv.i.i.i = zext nneg i32 %div1.i.i.i to i64
  %add.i.i = add i64 %call.i, 1
  %add = add i64 %add.i.i, %conv.i.i.i
  br label %if.end

if.end:                                           ; preds = %if.then, %entry
  %total_size.0 = phi i64 [ 0, %entry ], [ %add, %if.then ]
  %root_.i = getelementptr inbounds i8, ptr %this, i64 24
  %8 = load ptr, ptr %root_.i, align 8
  %9 = ptrtoint ptr %8 to i64
  %and.i.i4 = and i64 %9, -4
  %10 = inttoptr i64 %and.i.i4 to ptr
  %call7 = tail call noundef zeroext i1 @_ZNKSt7__cxx1112basic_stringIcSt11char_traitsIcESaIcEE5emptyEv(ptr noundef nonnull align 8 dereferenceable(32) %10) #16
  br i1 %call7, label %if.end13, label %if.then8

if.then8:                                         ; preds = %if.end
  %11 = load ptr, ptr %root_.i, align 8
  %12 = ptrtoint ptr %11 to i64
  %and.i.i6 = and i64 %12, -4
  %13 = inttoptr i64 %and.i.i6 to ptr
  %call.i7 = tail call noundef i64 @_ZNKSt7__cxx1112basic_stringIcSt11char_traitsIcESaIcEE4sizeEv(ptr noundef nonnull align 8 dereferenceable(32) %13) #16
  %conv.i.i8 = trunc i64 %call.i7 to i32
  %or.i.i.i9 = or i32 %conv.i.i8, 1
  %14 = tail call noundef i32 @llvm.ctlz.i32(i32 %or.i.i.i9, i1 true), !range !10
  %sub.i.i.i10 = xor i32 %14, 31
  %mul.i.i.i11 = mul nuw nsw i32 %sub.i.i.i10, 9
  %add.i.i.i12 = add nuw nsw i32 %mul.i.i.i11, 73
  %div1.i.i.i13 = lshr i32 %add.i.i.i12, 6
  %conv.i.i.i14 = zext nneg i32 %div1.i.i.i13 to i64
  %add.i.i15 = add i64 %total_size.0, 1
  %add11 = add i64 %add.i.i15, %call.i7
  %add12 = add i64 %add11, %conv.i.i.i14
  br label %if.end13

if.end13:                                         ; preds = %if.then8, %if.end
  %total_size.1 = phi i64 [ %total_size.0, %if.end ], [ %add12, %if.then8 ]
  %_cached_size_ = getelementptr inbounds i8, ptr %this, i64 32
  %call14 = tail call noundef i64 @_ZNK6google8protobuf7Message29MaybeComputeUnknownFieldsSizeEmPNS0_8internal10CachedSizeE(ptr noundef nonnull align 8 dereferenceable(16) %this, i64 noundef %total_size.1, ptr noundef nonnull %_cached_size_)
  ret i64 %call14
}